target datalayout = "e-m:e-p270:32:32-p271:32:32-p272:64:64-i64:64-i128:128-f80:128-n8:16:32:64-S128"
target triple = "x86_64-pc-linux-gnu"

%"struct.faiss::Level1Quantizer" = type { ptr, i64, i8, i8, %"struct.faiss::ClusteringParameters", ptr }
%"struct.faiss::ClusteringParameters" = type { i32, i32, i8, i8, i8, i8, i8, i32, i32, i32, i64 }
%"class.std::__cxx11::basic_string" = type { %"struct.std::__cxx11::basic_string<char>::_Alloc_hider", i64, %union.anon }
%"struct.std::__cxx11::basic_string<char>::_Alloc_hider" = type { ptr }
%union.anon = type { i64, [8 x i8] }

@_ZTIN5faiss5IndexE = external constant ptr
@_ZTIN5faiss14FaissExceptionE = external constant ptr
@_ZTIN5faiss17IndexIVFInterfaceE = linkonce_odr constant { ptr, ptr, i32, i32, ptr, i64 } { ptr getelementptr inbounds (ptr, ptr @_ZTVN10__cxxabiv121__vmi_class_type_infoE, i64 2), ptr @_ZTSN5faiss17IndexIVFInterfaceE, i32 0, i32 1, ptr @_ZTIN5faiss15Level1QuantizerE, i64 2050 }, comdat, align 8
@.str.11 = private unnamed_addr constant [43 x i8] c"Error: '%s' failed: can only add IndexIVFs\00", align 1
@.str.12 = private unnamed_addr constant [10 x i8] c"index_ivf\00", align 1
@__PRETTY_FUNCTION__._ZN5faiss14IndexShardsIVF8addIndexEPNS_5IndexE = private unnamed_addr constant [54 x i8] c"virtual void faiss::IndexShardsIVF::addIndex(Index *)\00", align 1
@.str.13 = private unnamed_addr constant [114 x i8] c"generated/home/dtcxzyw/WorkSpace/Projects/compilers/llvm-opt-benchmark/bench/faiss/faiss/faiss/IndexShardsIVF.cpp\00", align 1
@.str.14 = private unnamed_addr constant [19 x i8] c"Error: '%s' failed\00", align 1
@.str.15 = private unnamed_addr constant [26 x i8] c"index_ivf->nlist == nlist\00", align 1

; Function Attrs: mustprogress uwtable
define void @_ZN5faiss14IndexShardsIVF8addIndexEPNS_5IndexE(ptr noundef nonnull align 8 dereferenceable(144) %0, ptr noundef %1) unnamed_addr #1 align 2 personality ptr @__gxx_personality_v0 {
  %3 = alloca ptr, align 8
  %4 = alloca ptr, align 8
  %5 = alloca ptr, align 8
  %6 = alloca %"class.std::__cxx11::basic_string", align 8
  %7 = alloca i32, align 4
  %8 = alloca ptr, align 8
  %9 = alloca i32, align 4
  %10 = alloca %"class.std::__cxx11::basic_string", align 8
  %11 = alloca i32, align 4
  store ptr %0, ptr %3, align 8
  store ptr %1, ptr %4, align 8
  %12 = load ptr, ptr %3, align 8
  %13 = load ptr, ptr %4, align 8
  %14 = icmp eq ptr %13, null
  br i1 %14, label %17, label %15

15:                                               ; preds = %2
  %16 = call ptr @__dynamic_cast(ptr %13, ptr @_ZTIN5faiss5IndexE, ptr @_ZTIN5faiss17IndexIVFInterfaceE, i64 -2) #5
  br label %18

17:                                               ; preds = %2
  br label %18

18:                                               ; preds = %17, %15
  %19 = phi ptr [ %16, %15 ], [ null, %17 ]
  store ptr %19, ptr %5, align 8
  br label %20

20:                                               ; preds = %18
  %21 = load ptr, ptr %5, align 8
  %22 = icmp ne ptr %21, null
  br i1 %22, label %46, label %23

23:                                               ; preds = %20
  br label %24

24:                                               ; preds = %23
  call void @_ZNSt7__cxx1112basic_stringIcSt11char_traitsIcESaIcEEC1Ev(ptr noundef nonnull align 8 dereferenceable(32) %6) #5
  %25 = call i32 (ptr, i64, ptr, ...) @snprintf(ptr noundef null, i64 noundef 0, ptr noundef @.str.11, ptr noundef @.str.12) #5
  store i32 %25, ptr %7, align 4
  %26 = load i32, ptr %7, align 4
  %27 = add nsw i32 %26, 1
  %28 = sext i32 %27 to i64
  invoke void @_ZNSt7__cxx1112basic_stringIcSt11char_traitsIcESaIcEE6resizeEm(ptr noundef nonnull align 8 dereferenceable(32) %6, i64 noundef %28)
          to label %29 unwind label %36

29:                                               ; preds = %24
  %30 = invoke noundef nonnull align 1 dereferenceable(1) ptr @_ZNSt7__cxx1112basic_stringIcSt11char_traitsIcESaIcEEixEm(ptr noundef nonnull align 8 dereferenceable(32) %6, i64 noundef 0)
          to label %31 unwind label %36

31:                                               ; preds = %29
  %32 = call noundef i64 @_ZNKSt7__cxx1112basic_stringIcSt11char_traitsIcESaIcEE4sizeEv(ptr noundef nonnull align 8 dereferenceable(32) %6) #5
  %33 = call i32 (ptr, i64, ptr, ...) @snprintf(ptr noundef %30, i64 noundef %32, ptr noundef @.str.11, ptr noundef @.str.12) #5
  %34 = call ptr @__cxa_allocate_exception(i64 40) #5
  invoke void @_ZN5faiss14FaissExceptionC1ERKNSt7__cxx1112basic_stringIcSt11char_traitsIcESaIcEEEPKcSA_i(ptr noundef nonnull align 8 dereferenceable(40) %34, ptr noundef nonnull align 8 dereferenceable(32) %6, ptr noundef @__PRETTY_FUNCTION__._ZN5faiss14IndexShardsIVF8addIndexEPNS_5IndexE, ptr noundef @.str.13, i32 noundef 57)
          to label %35 unwind label %40

35:                                               ; preds = %31
  invoke void @__cxa_throw(ptr %34, ptr @_ZTIN5faiss14FaissExceptionE, ptr @_ZN5faiss14FaissExceptionD2Ev) #16
          to label %88 unwind label %36

36:                                               ; preds = %35, %29, %24
  %37 = landingpad { ptr, i32 }
          cleanup
  %38 = extractvalue { ptr, i32 } %37, 0
  store ptr %38, ptr %8, align 8
  %39 = extractvalue { ptr, i32 } %37, 1
  store i32 %39, ptr %9, align 4
  br label %44

40:                                               ; preds = %31
  %41 = landingpad { ptr, i32 }
          cleanup
  %42 = extractvalue { ptr, i32 } %41, 0
  store ptr %42, ptr %8, align 8
  %43 = extractvalue { ptr, i32 } %41, 1
  store i32 %43, ptr %9, align 4
  call void @__cxa_free_exception(ptr %34) #5
  br label %44

44:                                               ; preds = %40, %36
  call void @_ZNSt7__cxx1112basic_stringIcSt11char_traitsIcESaIcEED1Ev(ptr noundef nonnull align 8 dereferenceable(32) %6) #5
  br label %83

45:                                               ; No predecessors!
  br label %46

46:                                               ; preds = %45, %20
  br label %47

47:                                               ; preds = %46
  br label %48

48:                                               ; preds = %47
  %49 = load ptr, ptr %5, align 8
  %50 = getelementptr inbounds i8, ptr %49, i64 8
  %51 = getelementptr inbounds %"struct.faiss::Level1Quantizer", ptr %50, i32 0, i32 1
  %52 = load i64, ptr %51, align 8
  %53 = getelementptr inbounds i8, ptr %12, i64 72
  %54 = getelementptr inbounds %"struct.faiss::Level1Quantizer", ptr %53, i32 0, i32 1
  %55 = load i64, ptr %54, align 8
  %56 = icmp eq i64 %52, %55
  br i1 %56, label %80, label %57

57:                                               ; preds = %48
  br label %58

58:                                               ; preds = %57
  call void @_ZNSt7__cxx1112basic_stringIcSt11char_traitsIcESaIcEEC1Ev(ptr noundef nonnull align 8 dereferenceable(32) %10) #5
  %59 = call i32 (ptr, i64, ptr, ...) @snprintf(ptr noundef null, i64 noundef 0, ptr noundef @.str.14, ptr noundef @.str.15) #5
  store i32 %59, ptr %11, align 4
  %60 = load i32, ptr %11, align 4
  %61 = add nsw i32 %60, 1
  %62 = sext i32 %61 to i64
  invoke void @_ZNSt7__cxx1112basic_stringIcSt11char_traitsIcESaIcEE6resizeEm(ptr noundef nonnull align 8 dereferenceable(32) %10, i64 noundef %62)
          to label %63 unwind label %70

63:                                               ; preds = %58
  %64 = invoke noundef nonnull align 1 dereferenceable(1) ptr @_ZNSt7__cxx1112basic_stringIcSt11char_traitsIcESaIcEEixEm(ptr noundef nonnull align 8 dereferenceable(32) %10, i64 noundef 0)
          to label %65 unwind label %70

65:                                               ; preds = %63
  %66 = call noundef i64 @_ZNKSt7__cxx1112basic_stringIcSt11char_traitsIcESaIcEE4sizeEv(ptr noundef nonnull align 8 dereferenceable(32) %10) #5
  %67 = call i32 (ptr, i64, ptr, ...) @snprintf(ptr noundef %64, i64 noundef %66, ptr noundef @.str.14, ptr noundef @.str.15) #5
  %68 = call ptr @__cxa_allocate_exception(i64 40) #5
  invoke void @_ZN5faiss14FaissExceptionC1ERKNSt7__cxx1112basic_stringIcSt11char_traitsIcESaIcEEEPKcSA_i(ptr noundef nonnull align 8 dereferenceable(40) %68, ptr noundef nonnull align 8 dereferenceable(32) %10, ptr noundef @__PRETTY_FUNCTION__._ZN5faiss14IndexShardsIVF8addIndexEPNS_5IndexE, ptr noundef @.str.13, i32 noundef 58)
          to label %69 unwind label %74

69:                                               ; preds = %65
  invoke void @__cxa_throw(ptr %68, ptr @_ZTIN5faiss14FaissExceptionE, ptr @_ZN5faiss14FaissExceptionD2Ev) #16
          to label %88 unwind label %70

70:                                               ; preds = %69, %63, %58
  %71 = landingpad { ptr, i32 }
          cleanup
  %72 = extractvalue { ptr, i32 } %71, 0
  store ptr %72, ptr %8, align 8
  %73 = extractvalue { ptr, i32 } %71, 1
  store i32 %73, ptr %9, align 4
  br label %78

74:                                               ; preds = %65
  %75 = landingpad { ptr, i32 }
          cleanup
  %76 = extractvalue { ptr, i32 } %75, 0
  store ptr %76, ptr %8, align 8
  %77 = extractvalue { ptr, i32 } %75, 1
  store i32 %77, ptr %9, align 4
  call void @__cxa_free_exception(ptr %68) #5
  br label %78

78:                                               ; preds = %74, %70
  call void @_ZNSt7__cxx1112basic_stringIcSt11char_traitsIcESaIcEED1Ev(ptr noundef nonnull align 8 dereferenceable(32) %10) #5
  br label %83

79:                                               ; No predecessors!
  br label %80

80:                                               ; preds = %79, %48
  br label %81

81:                                               ; preds = %80
  %82 = load ptr, ptr %4, align 8
  call void @_ZN5faiss13ThreadedIndexINS_5IndexEE8addIndexEPS1_(ptr noundef nonnull align 8 dereferenceable(65) %12, ptr noundef %82)
  ret void

83:                                               ; preds = %78, %44
  %84 = load ptr, ptr %8, align 8
  %85 = load i32, ptr %9, align 4
  %86 = insertvalue { ptr, i32 } poison, ptr %84, 0
  %87 = insertvalue { ptr, i32 } %86, i32 %85, 1
  resume { ptr, i32 } %87

88:                                               ; preds = %69, %35
  unreachable
}