; Function Attrs: mustprogress uwtable
define void @_ZN5faiss14IndexShardsIVF8addIndexEPNS_5IndexE(ptr noundef nonnull align 8 dereferenceable(144) %0, ptr noundef %1) unnamed_addr #1 align 2 personality ptr @__gxx_personality_v0 {
  %3 = alloca %"class.std::__cxx11::basic_string", align 8
  %4 = alloca %"class.std::__cxx11::basic_string", align 8
  %5 = icmp eq ptr %1, null
  br i1 %5, label %.thread, label %6

6:                                                ; preds = %2
  %7 = tail call ptr @__dynamic_cast(ptr nonnull %1, ptr nonnull @_ZTIN5faiss5IndexE, ptr nonnull @_ZTIN5faiss17IndexIVFInterfaceE, i64 -2) #19
  %.not = icmp eq ptr %7, null
  br i1 %.not, label %.thread, label %22

.thread:                                          ; preds = %2, %6
  call void @_ZNSt7__cxx1112basic_stringIcSt11char_traitsIcESaIcEEC1Ev(ptr noundef nonnull align 8 dereferenceable(32) %3) #19
  %8 = call i32 (ptr, i64, ptr, ...) @snprintf(ptr noundef null, i64 noundef 0, ptr noundef nonnull @.str.11, ptr noundef nonnull @.str.12) #19
  %9 = add nsw i32 %8, 1
  %10 = sext i32 %9 to i64
  invoke void @_ZNSt7__cxx1112basic_stringIcSt11char_traitsIcESaIcEE6resizeEm(ptr noundef nonnull align 8 dereferenceable(32) %3, i64 noundef %10)
          to label %11 unwind label %18

11:                                               ; preds = %.thread
  %12 = invoke noundef nonnull align 1 dereferenceable(1) ptr @_ZNSt7__cxx1112basic_stringIcSt11char_traitsIcESaIcEEixEm(ptr noundef nonnull align 8 dereferenceable(32) %3, i64 noundef 0)
          to label %13 unwind label %18

13:                                               ; preds = %11
  %14 = call noundef i64 @_ZNKSt7__cxx1112basic_stringIcSt11char_traitsIcESaIcEE4sizeEv(ptr noundef nonnull align 8 dereferenceable(32) %3) #19
  %15 = call i32 (ptr, i64, ptr, ...) @snprintf(ptr noundef nonnull %12, i64 noundef %14, ptr noundef nonnull @.str.11, ptr noundef nonnull @.str.12) #19
  %16 = call ptr @__cxa_allocate_exception(i64 40) #19
  invoke void @_ZN5faiss14FaissExceptionC1ERKNSt7__cxx1112basic_stringIcSt11char_traitsIcESaIcEEEPKcSA_i(ptr noundef nonnull align 8 dereferenceable(40) %16, ptr noundef nonnull align 8 dereferenceable(32) %3, ptr noundef nonnull @__PRETTY_FUNCTION__._ZN5faiss14IndexShardsIVF8addIndexEPNS_5IndexE, ptr noundef nonnull @.str.13, i32 noundef 57)
          to label %17 unwind label %20

17:                                               ; preds = %13
  invoke void @__cxa_throw(ptr nonnull %16, ptr nonnull @_ZTIN5faiss14FaissExceptionE, ptr nonnull @_ZN5faiss14FaissExceptionD2Ev) #21
          to label %45 unwind label %18

18:                                               ; preds = %17, %11, %.thread
  %19 = landingpad { ptr, i32 }
          cleanup
  br label %44

20:                                               ; preds = %13
  %21 = landingpad { ptr, i32 }
          cleanup
  call void @__cxa_free_exception(ptr %16) #19
  br label %44

22:                                               ; preds = %6
  %23 = getelementptr inbounds i8, ptr %7, i64 16
  %24 = load i64, ptr %23, align 8
  %25 = getelementptr inbounds i8, ptr %0, i64 80
  %26 = load i64, ptr %25, align 8
  %27 = icmp eq i64 %24, %26
  br i1 %27, label %43, label %28

28:                                               ; preds = %22
  call void @_ZNSt7__cxx1112basic_stringIcSt11char_traitsIcESaIcEEC1Ev(ptr noundef nonnull align 8 dereferenceable(32) %4) #19
  %29 = call i32 (ptr, i64, ptr, ...) @snprintf(ptr noundef null, i64 noundef 0, ptr noundef nonnull @.str.14, ptr noundef nonnull @.str.15) #19
  %30 = add nsw i32 %29, 1
  %31 = sext i32 %30 to i64
  invoke void @_ZNSt7__cxx1112basic_stringIcSt11char_traitsIcESaIcEE6resizeEm(ptr noundef nonnull align 8 dereferenceable(32) %4, i64 noundef %31)
          to label %32 unwind label %39

32:                                               ; preds = %28
  %33 = invoke noundef nonnull align 1 dereferenceable(1) ptr @_ZNSt7__cxx1112basic_stringIcSt11char_traitsIcESaIcEEixEm(ptr noundef nonnull align 8 dereferenceable(32) %4, i64 noundef 0)
          to label %34 unwind label %39

34:                                               ; preds = %32
  %35 = call noundef i64 @_ZNKSt7__cxx1112basic_stringIcSt11char_traitsIcESaIcEE4sizeEv(ptr noundef nonnull align 8 dereferenceable(32) %4) #19
  %36 = call i32 (ptr, i64, ptr, ...) @snprintf(ptr noundef nonnull %33, i64 noundef %35, ptr noundef nonnull @.str.14, ptr noundef nonnull @.str.15) #19
  %37 = call ptr @__cxa_allocate_exception(i64 40) #19
  invoke void @_ZN5faiss14FaissExceptionC1ERKNSt7__cxx1112basic_stringIcSt11char_traitsIcESaIcEEEPKcSA_i(ptr noundef nonnull align 8 dereferenceable(40) %37, ptr noundef nonnull align 8 dereferenceable(32) %4, ptr noundef nonnull @__PRETTY_FUNCTION__._ZN5faiss14IndexShardsIVF8addIndexEPNS_5IndexE, ptr noundef nonnull @.str.13, i32 noundef 58)
          to label %38 unwind label %41

38:                                               ; preds = %34
  invoke void @__cxa_throw(ptr nonnull %37, ptr nonnull @_ZTIN5faiss14FaissExceptionE, ptr nonnull @_ZN5faiss14FaissExceptionD2Ev) #21
          to label %45 unwind label %39

39:                                               ; preds = %38, %32, %28
  %40 = landingpad { ptr, i32 }
          cleanup
  br label %44

41:                                               ; preds = %34
  %42 = landingpad { ptr, i32 }
          cleanup
  call void @__cxa_free_exception(ptr %37) #19
  br label %44

43:                                               ; preds = %22
  tail call void @_ZN5faiss13ThreadedIndexINS_5IndexEE8addIndexEPS1_(ptr noundef nonnull align 8 dereferenceable(65) %0, ptr noundef nonnull %1)
  ret void

44:                                               ; preds = %39, %41, %18, %20
  %.sink = phi ptr [ %3, %20 ], [ %3, %18 ], [ %4, %41 ], [ %4, %39 ]
  %.pn14.pn = phi { ptr, i32 } [ %21, %20 ], [ %19, %18 ], [ %42, %41 ], [ %40, %39 ]
  call void @_ZNSt7__cxx1112basic_stringIcSt11char_traitsIcESaIcEED1Ev(ptr noundef nonnull align 8 dereferenceable(32) %.sink) #19
  resume { ptr, i32 } %.pn14.pn

45:                                               ; preds = %38, %17
  unreachable
}